target datalayout = "e-m:e-p270:32:32-p271:32:32-p272:64:64-i64:64-i128:128-f80:128-n8:16:32:64-S128"
target triple = "x86_64-pc-linux-gnu"

%struct.Curl_easy = type { i32, i64, i64, ptr, %struct.Curl_llist_node, %struct.Curl_llist_node, i32, i32, %struct.Curl_message, %struct.easy_pollset, %struct.Names, ptr, ptr, ptr, ptr, %struct.SingleRequest, %struct.UserDefined, ptr, ptr, ptr, %struct.Progress, %struct.UrlState, ptr, %struct.PureInfo, %struct.curl_tlssessioninfo }
%struct.Curl_llist_node = type { ptr, ptr, ptr, ptr }
%struct.Curl_message = type { %struct.Curl_llist_node, %struct.CURLMsg }
%struct.CURLMsg = type { i32, ptr, %union.anon }
%union.anon = type { ptr }
%struct.easy_pollset = type { [5 x i32], i32, [5 x i8] }
%struct.Names = type { ptr, i32 }
%struct.SingleRequest = type <{ i64, i64, i64, i64, %struct.curltime, i32, i32, i32, i32, i64, i32, i32, i8, i8, [2 x i8], i32, ptr, ptr, %struct.bufq, i64, i64, ptr, ptr, %union.anon.0, ptr, i8, i32, [3 x i8] }>
%struct.curltime = type { i64, i32 }
%struct.bufq = type { ptr, ptr, ptr, ptr, i64, i64, i64, i32 }
%union.anon.0 = type { ptr }
%struct.UserDefined = type <{ ptr, ptr, ptr, ptr, ptr, ptr, i64, i64, i64, ptr, ptr, i64, ptr, ptr, ptr, ptr, ptr, ptr, ptr, ptr, ptr, ptr, ptr, ptr, ptr, ptr, ptr, ptr, ptr, ptr, ptr, ptr, ptr, ptr, ptr, i64, i64, i64, i64, i64, i64, i64, i64, i64, ptr, ptr, %struct.curl_mimepart, ptr, ptr, ptr, i64, %struct.ssl_config_data, %struct.ssl_config_data, ptr, i16, i8, i8, %struct.ssl_general_config, i32, i32, i32, [4 x i8], ptr, ptr, i64, i32, i8, i8, i8, i8, ptr, ptr, ptr, i32, [4 x i8], [74 x ptr], [8 x ptr], i32, i32, i32, [4 x i8], ptr, i32, [4 x i8], ptr, ptr, ptr, ptr, ptr, i32, i32, i32, i32, i32, i32, i32, i32, i64, ptr, ptr, i64, ptr, i64, ptr, ptr, ptr, ptr, i32, i16, i16, i16, i8, i8, i8, i8, i8, i8, i8, i8, i64, [6 x i8] }>
%struct.curl_mimepart = type { ptr, ptr, i32, i32, ptr, ptr, ptr, ptr, ptr, ptr, ptr, ptr, ptr, ptr, ptr, i64, %struct.mime_state, ptr, %struct.mime_encoder_state, i64 }
%struct.mime_state = type { i32, ptr, i64 }
%struct.mime_encoder_state = type { i64, i64, i64, [256 x i8] }
%struct.ssl_config_data = type { %struct.ssl_primary_config, i64, ptr, ptr, ptr, ptr, ptr, ptr, ptr, i16 }
%struct.ssl_primary_config = type { ptr, ptr, ptr, ptr, ptr, ptr, ptr, ptr, ptr, ptr, ptr, ptr, ptr, ptr, i8, i32, i8, i8 }
%struct.ssl_general_config = type { i32 }
%struct.Progress = type { i64, %struct.pgrs_dir, %struct.pgrs_dir, i64, i64, i32, i32, i64, i64, i64, i64, i64, i64, i64, i64, i64, %struct.curltime, %struct.curltime, %struct.curltime, %struct.curltime, %struct.curltime, [6 x i64], [6 x %struct.curltime], i32, i8 }
%struct.pgrs_dir = type { i64, i64, i64, %struct.pgrs_measure }
%struct.pgrs_measure = type { %struct.curltime, i64 }
%struct.UrlState = type { %struct.curltime, i64, i64, %struct.dynbuf, ptr, i64, ptr, i32, i32, i32, ptr, i32, i64, i32, ptr, %struct.digestdata, %struct.digestdata, %struct.auth, %struct.auth, %struct.Curl_async, ptr, i8, %struct.curltime, %struct.Curl_tree, %struct.Curl_llist, [15 x %struct.time_node], ptr, ptr, i64, i64, i64, i64, [32 x i8], i64, ptr, ptr, ptr, %struct.urlpieces, ptr, ptr, ptr, ptr, ptr, i64, %struct.dynbuf, %struct.Curl_llist, [2 x %struct.curl_header], ptr, i32, ptr, ptr, %struct.store_netrc, %struct.dynamically_allocated_data, i8, i8, i8, i8, i32 }
%struct.digestdata = type { ptr, ptr, ptr, ptr, ptr, ptr, i32, i8, i8 }
%struct.auth = type { i64, i64, i64, i8 }
%struct.Curl_async = type { ptr, ptr, ptr, ptr, i32, i32, i8 }
%struct.Curl_tree = type { ptr, ptr, ptr, ptr, %struct.curltime, ptr }
%struct.time_node = type { %struct.Curl_llist_node, %struct.curltime, i32 }
%struct.urlpieces = type { ptr, ptr, ptr, ptr, ptr, ptr, ptr, ptr }
%struct.dynbuf = type { ptr, i64, i64, i64 }
%struct.Curl_llist = type { ptr, ptr, ptr, i64 }
%struct.curl_header = type { ptr, ptr, i64, i64, i32, ptr }
%struct.store_netrc = type { %struct.dynbuf, ptr, i8 }
%struct.dynamically_allocated_data = type { ptr, ptr, ptr, ptr, ptr, ptr, ptr, ptr, ptr, ptr, ptr, ptr, ptr, ptr }
%struct.PureInfo = type { i32, i32, i32, i64, i64, i64, i64, i64, i64, i64, ptr, ptr, i64, i32, %struct.ip_quadruple, i32, ptr, i32, %struct.curl_certinfo, i32, i8 }
%struct.ip_quadruple = type { [46 x i8], [46 x i8], i32, i32 }
%struct.curl_certinfo = type { i32, ptr }
%struct.curl_tlssessioninfo = type { i32, ptr }

@Curl_cfree = external global ptr, align 8
@.str.1 = private unnamed_addr constant [1 x i8] zeroinitializer, align 1
@.str.2 = private unnamed_addr constant [5 x i8] c"%.*s\00", align 1
@Curl_cstrdup = external global ptr, align 8
@.str.3 = private unnamed_addr constant [29 x i8] c"%sAuthorization: Digest %s\0D\0A\00", align 1
@.str.4 = private unnamed_addr constant [7 x i8] c"Proxy-\00", align 1

; Function Attrs: nounwind uwtable
define hidden i32 @Curl_output_digest(ptr noundef %0, i1 noundef zeroext %1, ptr noundef %2, ptr noundef %3) #0 {
  %5 = alloca i32, align 4
  %6 = alloca ptr, align 8
  %7 = alloca i8, align 1
  %8 = alloca ptr, align 8
  %9 = alloca ptr, align 8
  %10 = alloca i32, align 4
  %11 = alloca ptr, align 8
  %12 = alloca ptr, align 8
  %13 = alloca ptr, align 8
  %14 = alloca i64, align 8
  %15 = alloca i8, align 1
  %16 = alloca ptr, align 8
  %17 = alloca ptr, align 8
  %18 = alloca ptr, align 8
  %19 = alloca ptr, align 8
  %20 = alloca ptr, align 8
  %21 = alloca i32, align 4
  %22 = alloca i64, align 8
  store ptr %0, ptr %6, align 8, !tbaa !3
  %23 = zext i1 %1 to i8
  store i8 %23, ptr %7, align 1, !tbaa !8
  store ptr %2, ptr %8, align 8, !tbaa !10
  store ptr %3, ptr %9, align 8, !tbaa !10
  call void @llvm.lifetime.start.p0(i64 4, ptr %10) #4
  call void @llvm.lifetime.start.p0(i64 8, ptr %11) #4
  store ptr null, ptr %11, align 8, !tbaa !10
  call void @llvm.lifetime.start.p0(i64 8, ptr %12) #4
  store ptr null, ptr %12, align 8, !tbaa !10
  call void @llvm.lifetime.start.p0(i64 8, ptr %13) #4
  call void @llvm.lifetime.start.p0(i64 8, ptr %14) #4
  call void @llvm.lifetime.start.p0(i64 1, ptr %15) #4
  call void @llvm.lifetime.start.p0(i64 8, ptr %16) #4
  call void @llvm.lifetime.start.p0(i64 8, ptr %17) #4
  call void @llvm.lifetime.start.p0(i64 8, ptr %18) #4
  call void @llvm.lifetime.start.p0(i64 8, ptr %19) #4
  call void @llvm.lifetime.start.p0(i64 8, ptr %20) #4
  %24 = load i8, ptr %7, align 1, !tbaa !8, !range !12, !noundef !13
  %25 = trunc i8 %24 to i1
  br i1 %25, label %26, label %47

26:                                               ; preds = %4
  %27 = load ptr, ptr %6, align 8, !tbaa !3
  %28 = getelementptr inbounds nuw %struct.Curl_easy, ptr %27, i32 0, i32 21
  %29 = getelementptr inbounds nuw %struct.UrlState, ptr %28, i32 0, i32 16
  store ptr %29, ptr %19, align 8, !tbaa !14
  %30 = load ptr, ptr %6, align 8, !tbaa !3
  %31 = getelementptr inbounds nuw %struct.Curl_easy, ptr %30, i32 0, i32 21
  %32 = getelementptr inbounds nuw %struct.UrlState, ptr %31, i32 0, i32 52
  %33 = getelementptr inbounds nuw %struct.dynamically_allocated_data, ptr %32, i32 0, i32 11
  store ptr %33, ptr %16, align 8, !tbaa !19
  %34 = load ptr, ptr %6, align 8, !tbaa !3
  %35 = getelementptr inbounds nuw %struct.Curl_easy, ptr %34, i32 0, i32 21
  %36 = getelementptr inbounds nuw %struct.UrlState, ptr %35, i32 0, i32 52
  %37 = getelementptr inbounds nuw %struct.dynamically_allocated_data, ptr %36, i32 0, i32 12
  %38 = load ptr, ptr %37, align 8, !tbaa !21
  store ptr %38, ptr %17, align 8, !tbaa !10
  %39 = load ptr, ptr %6, align 8, !tbaa !3
  %40 = getelementptr inbounds nuw %struct.Curl_easy, ptr %39, i32 0, i32 21
  %41 = getelementptr inbounds nuw %struct.UrlState, ptr %40, i32 0, i32 52
  %42 = getelementptr inbounds nuw %struct.dynamically_allocated_data, ptr %41, i32 0, i32 13
  %43 = load ptr, ptr %42, align 8, !tbaa !89
  store ptr %43, ptr %18, align 8, !tbaa !10
  %44 = load ptr, ptr %6, align 8, !tbaa !3
  %45 = getelementptr inbounds nuw %struct.Curl_easy, ptr %44, i32 0, i32 21
  %46 = getelementptr inbounds nuw %struct.UrlState, ptr %45, i32 0, i32 18
  store ptr %46, ptr %20, align 8, !tbaa !90
  br label %68

47:                                               ; preds = %4
  %48 = load ptr, ptr %6, align 8, !tbaa !3
  %49 = getelementptr inbounds nuw %struct.Curl_easy, ptr %48, i32 0, i32 21
  %50 = getelementptr inbounds nuw %struct.UrlState, ptr %49, i32 0, i32 15
  store ptr %50, ptr %19, align 8, !tbaa !14
  %51 = load ptr, ptr %6, align 8, !tbaa !3
  %52 = getelementptr inbounds nuw %struct.Curl_easy, ptr %51, i32 0, i32 21
  %53 = getelementptr inbounds nuw %struct.UrlState, ptr %52, i32 0, i32 52
  %54 = getelementptr inbounds nuw %struct.dynamically_allocated_data, ptr %53, i32 0, i32 2
  store ptr %54, ptr %16, align 8, !tbaa !19
  %55 = load ptr, ptr %6, align 8, !tbaa !3
  %56 = getelementptr inbounds nuw %struct.Curl_easy, ptr %55, i32 0, i32 21
  %57 = getelementptr inbounds nuw %struct.UrlState, ptr %56, i32 0, i32 52
  %58 = getelementptr inbounds nuw %struct.dynamically_allocated_data, ptr %57, i32 0, i32 9
  %59 = load ptr, ptr %58, align 8, !tbaa !92
  store ptr %59, ptr %17, align 8, !tbaa !10
  %60 = load ptr, ptr %6, align 8, !tbaa !3
  %61 = getelementptr inbounds nuw %struct.Curl_easy, ptr %60, i32 0, i32 21
  %62 = getelementptr inbounds nuw %struct.UrlState, ptr %61, i32 0, i32 52
  %63 = getelementptr inbounds nuw %struct.dynamically_allocated_data, ptr %62, i32 0, i32 10
  %64 = load ptr, ptr %63, align 8, !tbaa !93
  store ptr %64, ptr %18, align 8, !tbaa !10
  %65 = load ptr, ptr %6, align 8, !tbaa !3
  %66 = getelementptr inbounds nuw %struct.Curl_easy, ptr %65, i32 0, i32 21
  %67 = getelementptr inbounds nuw %struct.UrlState, ptr %66, i32 0, i32 17
  store ptr %67, ptr %20, align 8, !tbaa !90
  br label %68

68:                                               ; preds = %47, %26
  br label %69

69:                                               ; preds = %68
  %70 = load ptr, ptr @Curl_cfree, align 8, !tbaa !94
  %71 = load ptr, ptr %16, align 8, !tbaa !19
  %72 = load ptr, ptr %71, align 8, !tbaa !10
  call void %70(ptr noundef %72)
  %73 = load ptr, ptr %16, align 8, !tbaa !19
  store ptr null, ptr %73, align 8, !tbaa !10
  br label %74

74:                                               ; preds = %69
  br label %75

75:                                               ; preds = %74
  %76 = load ptr, ptr %17, align 8, !tbaa !10
  %77 = icmp ne ptr %76, null
  br i1 %77, label %79, label %78

78:                                               ; preds = %75
  store ptr @.str.1, ptr %17, align 8, !tbaa !10
  br label %79

79:                                               ; preds = %78, %75
  %80 = load ptr, ptr %18, align 8, !tbaa !10
  %81 = icmp ne ptr %80, null
  br i1 %81, label %83, label %82

82:                                               ; preds = %79
  store ptr @.str.1, ptr %18, align 8, !tbaa !10
  br label %83

83:                                               ; preds = %82, %79
  %84 = load ptr, ptr %19, align 8, !tbaa !14
  %85 = getelementptr inbounds nuw %struct.digestdata, ptr %84, i32 0, i32 0
  %86 = load ptr, ptr %85, align 8, !tbaa !95
  %87 = icmp ne ptr %86, null
  %88 = xor i1 %87, true
  %89 = xor i1 %88, true
  %90 = zext i1 %89 to i8
  store i8 %90, ptr %15, align 1, !tbaa !8
  %91 = load i8, ptr %15, align 1, !tbaa !8, !range !12, !noundef !13
  %92 = trunc i8 %91 to i1
  br i1 %92, label %99, label %93

93:                                               ; preds = %83
  %94 = load ptr, ptr %20, align 8, !tbaa !90
  %95 = getelementptr inbounds nuw %struct.auth, ptr %94, i32 0, i32 3
  %96 = load i8, ptr %95, align 8
  %97 = and i8 %96, -2
  %98 = or i8 %97, 0
  store i8 %98, ptr %95, align 8
  store i32 0, ptr %5, align 4
  store i32 1, ptr %21, align 4
  br label %167

99:                                               ; preds = %83
  %100 = load ptr, ptr %20, align 8, !tbaa !90
  %101 = getelementptr inbounds nuw %struct.auth, ptr %100, i32 0, i32 3
  %102 = load i8, ptr %101, align 8
  %103 = lshr i8 %102, 2
  %104 = and i8 %103, 1
  %105 = zext i8 %104 to i32
  %106 = icmp ne i32 %105, 0
  br i1 %106, label %107, label %123

107:                                              ; preds = %99
  %108 = load ptr, ptr %9, align 8, !tbaa !10
  %109 = call ptr @strchr(ptr noundef %108, i32 noundef 63) #5
  store ptr %109, ptr %12, align 8, !tbaa !10
  %110 = load ptr, ptr %12, align 8, !tbaa !10
  %111 = icmp ne ptr %110, null
  br i1 %111, label %112, label %122

112:                                              ; preds = %107
  call void @llvm.lifetime.start.p0(i64 8, ptr %22) #4
  %113 = load ptr, ptr %12, align 8, !tbaa !10
  %114 = load ptr, ptr %9, align 8, !tbaa !10
  %115 = ptrtoint ptr %113 to i64
  %116 = ptrtoint ptr %114 to i64
  %117 = sub i64 %115, %116
  store i64 %117, ptr %22, align 8, !tbaa !96
  %118 = load i64, ptr %22, align 8, !tbaa !96
  %119 = trunc i64 %118 to i32
  %120 = load ptr, ptr %9, align 8, !tbaa !10
  %121 = call ptr (ptr, ...) @curl_maprintf(ptr noundef @.str.2, i32 noundef %119, ptr noundef %120)
  store ptr %121, ptr %11, align 8, !tbaa !10
  call void @llvm.lifetime.end.p0(i64 8, ptr %22) #4
  br label %122

122:                                              ; preds = %112, %107
  br label %123

123:                                              ; preds = %122, %99
  %124 = load ptr, ptr %12, align 8, !tbaa !10
  %125 = icmp ne ptr %124, null
  br i1 %125, label %130, label %126

126:                                              ; preds = %123
  %127 = load ptr, ptr @Curl_cstrdup, align 8, !tbaa !94
  %128 = load ptr, ptr %9, align 8, !tbaa !10
  %129 = call ptr %127(ptr noundef %128)
  store ptr %129, ptr %11, align 8, !tbaa !10
  br label %130

130:                                              ; preds = %126, %123
  %131 = load ptr, ptr %11, align 8, !tbaa !10
  %132 = icmp ne ptr %131, null
  br i1 %132, label %134, label %133

133:                                              ; preds = %130
  store i32 27, ptr %5, align 4
  store i32 1, ptr %21, align 4
  br label %167

134:                                              ; preds = %130
  %135 = load ptr, ptr %6, align 8, !tbaa !3
  %136 = load ptr, ptr %17, align 8, !tbaa !10
  %137 = load ptr, ptr %18, align 8, !tbaa !10
  %138 = load ptr, ptr %8, align 8, !tbaa !10
  %139 = load ptr, ptr %11, align 8, !tbaa !10
  %140 = load ptr, ptr %19, align 8, !tbaa !14
  %141 = call i32 @Curl_auth_create_digest_http_message(ptr noundef %135, ptr noundef %136, ptr noundef %137, ptr noundef %138, ptr noundef %139, ptr noundef %140, ptr noundef %13, ptr noundef %14)
  store i32 %141, ptr %10, align 4, !tbaa !97
  %142 = load ptr, ptr @Curl_cfree, align 8, !tbaa !94
  %143 = load ptr, ptr %11, align 8, !tbaa !10
  call void %142(ptr noundef %143)
  %144 = load i32, ptr %10, align 4, !tbaa !97
  %145 = icmp ne i32 %144, 0
  br i1 %145, label %146, label %148

146:                                              ; preds = %134
  %147 = load i32, ptr %10, align 4, !tbaa !97
  store i32 %147, ptr %5, align 4
  store i32 1, ptr %21, align 4
  br label %167

148:                                              ; preds = %134
  %149 = load i8, ptr %7, align 1, !tbaa !8, !range !12, !noundef !13
  %150 = trunc i8 %149 to i1
  %151 = select i1 %150, ptr @.str.4, ptr @.str.1
  %152 = load ptr, ptr %13, align 8, !tbaa !10
  %153 = call ptr (ptr, ...) @curl_maprintf(ptr noundef @.str.3, ptr noundef %151, ptr noundef %152)
  %154 = load ptr, ptr %16, align 8, !tbaa !19
  store ptr %153, ptr %154, align 8, !tbaa !10
  %155 = load ptr, ptr @Curl_cfree, align 8, !tbaa !94
  %156 = load ptr, ptr %13, align 8, !tbaa !10
  call void %155(ptr noundef %156)
  %157 = load ptr, ptr %16, align 8, !tbaa !19
  %158 = load ptr, ptr %157, align 8, !tbaa !10
  %159 = icmp ne ptr %158, null
  br i1 %159, label %161, label %160

160:                                              ; preds = %148
  store i32 27, ptr %5, align 4
  store i32 1, ptr %21, align 4
  br label %167

161:                                              ; preds = %148
  %162 = load ptr, ptr %20, align 8, !tbaa !90
  %163 = getelementptr inbounds nuw %struct.auth, ptr %162, i32 0, i32 3
  %164 = load i8, ptr %163, align 8
  %165 = and i8 %164, -2
  %166 = or i8 %165, 1
  store i8 %166, ptr %163, align 8
  store i32 0, ptr %5, align 4
  store i32 1, ptr %21, align 4
  br label %167

167:                                              ; preds = %161, %160, %146, %133, %93
  call void @llvm.lifetime.end.p0(i64 8, ptr %20) #4
  call void @llvm.lifetime.end.p0(i64 8, ptr %19) #4
  call void @llvm.lifetime.end.p0(i64 8, ptr %18) #4
  call void @llvm.lifetime.end.p0(i64 8, ptr %17) #4
  call void @llvm.lifetime.end.p0(i64 8, ptr %16) #4
  call void @llvm.lifetime.end.p0(i64 1, ptr %15) #4
  call void @llvm.lifetime.end.p0(i64 8, ptr %14) #4
  call void @llvm.lifetime.end.p0(i64 8, ptr %13) #4
  call void @llvm.lifetime.end.p0(i64 8, ptr %12) #4
  call void @llvm.lifetime.end.p0(i64 8, ptr %11) #4
  call void @llvm.lifetime.end.p0(i64 4, ptr %10) #4
  %168 = load i32, ptr %5, align 4
  ret i32 %168
}