; Function Attrs: nounwind uwtable
define hidden i32 @Curl_output_digest(ptr noundef %0, i1 noundef zeroext %1, ptr noundef %2, ptr noundef %3) local_unnamed_addr #0 {
  %5 = alloca ptr, align 8
  %6 = alloca i64, align 8
  call void @llvm.lifetime.start.p0(i64 8, ptr nonnull %5) #4
  call void @llvm.lifetime.start.p0(i64 8, ptr nonnull %6) #4
  %. = select i1 %1, i64 3328, i64 3272
  %.66 = select i1 %1, i64 5008, i64 4936
  %.67 = select i1 %1, i64 5016, i64 4992
  %.68 = select i1 %1, i64 5024, i64 5000
  %.69 = select i1 %1, i64 3416, i64 3384
  %7 = getelementptr inbounds nuw i8, ptr %0, i64 %.
  %8 = getelementptr inbounds nuw i8, ptr %0, i64 %.66
  %9 = getelementptr inbounds nuw i8, ptr %0, i64 %.67
  %10 = getelementptr inbounds nuw i8, ptr %0, i64 %.68
  %11 = getelementptr inbounds nuw i8, ptr %0, i64 %.69
  %.044 = load ptr, ptr %10, align 8, !tbaa !8
  %.045 = load ptr, ptr %9, align 8, !tbaa !8
  %12 = load ptr, ptr @Curl_cfree, align 8, !tbaa !11
  %13 = load ptr, ptr %8, align 8, !tbaa !8
  tail call void %12(ptr noundef %13) #4
  store ptr null, ptr %8, align 8, !tbaa !8
  %.not = icmp eq ptr %.045, null
  %spec.store.select1 = select i1 %.not, ptr @.str.1, ptr %.045
  %.not52 = icmp eq ptr %.044, null
  %spec.store.select = select i1 %.not52, ptr @.str.1, ptr %.044
  %14 = load ptr, ptr %7, align 8, !tbaa !12
  %.not53 = icmp eq ptr %14, null
  %15 = getelementptr inbounds nuw i8, ptr %11, i64 24
  %16 = load i8, ptr %15, align 8
  br i1 %.not53, label %17, label %19

17:                                               ; preds = %4
  %18 = and i8 %16, -2
  br label %.sink.split

19:                                               ; preds = %4
  %20 = and i8 %16, 4
  %.not54 = icmp eq i8 %20, 0
  br i1 %.not54, label %29, label %21

21:                                               ; preds = %19
  %22 = tail call ptr @strchr(ptr noundef nonnull dereferenceable(1) %3, i32 noundef 63) #5
  %.not55 = icmp eq ptr %22, null
  br i1 %.not55, label %29, label %23

23:                                               ; preds = %21
  %24 = ptrtoint ptr %22 to i64
  %25 = ptrtoint ptr %3 to i64
  %26 = sub i64 %24, %25
  %27 = trunc i64 %26 to i32
  %28 = tail call ptr (ptr, ...) @curl_maprintf(ptr noundef nonnull @.str.2, i32 noundef %27, ptr noundef nonnull %3) #4
  br label %32

29:                                               ; preds = %21, %19
  %30 = load ptr, ptr @Curl_cstrdup, align 8, !tbaa !11
  %31 = tail call ptr %30(ptr noundef %3) #4
  br label %32

32:                                               ; preds = %23, %29
  %.1 = phi ptr [ %28, %23 ], [ %31, %29 ]
  %.not57 = icmp eq ptr %.1, null
  br i1 %.not57, label %46, label %33

33:                                               ; preds = %32
  %34 = call i32 @Curl_auth_create_digest_http_message(ptr noundef %0, ptr noundef nonnull %spec.store.select1, ptr noundef nonnull %spec.store.select, ptr noundef %2, ptr noundef nonnull %.1, ptr noundef nonnull %7, ptr noundef nonnull %5, ptr noundef nonnull %6) #4
  %35 = load ptr, ptr @Curl_cfree, align 8, !tbaa !11
  call void %35(ptr noundef nonnull %.1) #4
  %.not58 = icmp eq i32 %34, 0
  br i1 %.not58, label %36, label %46

36:                                               ; preds = %33
  %37 = select i1 %1, ptr @.str.4, ptr @.str.1
  %38 = load ptr, ptr %5, align 8, !tbaa !8
  %39 = call ptr (ptr, ...) @curl_maprintf(ptr noundef nonnull @.str.3, ptr noundef nonnull %37, ptr noundef %38) #4
  store ptr %39, ptr %8, align 8, !tbaa !8
  %40 = load ptr, ptr @Curl_cfree, align 8, !tbaa !11
  %41 = load ptr, ptr %5, align 8, !tbaa !8
  call void %40(ptr noundef %41) #4
  %42 = load ptr, ptr %8, align 8, !tbaa !8
  %.not59 = icmp eq ptr %42, null
  br i1 %.not59, label %46, label %43

43:                                               ; preds = %36
  %44 = load i8, ptr %15, align 8
  %45 = or i8 %44, 1
  br label %.sink.split

.sink.split:                                      ; preds = %17, %43
  %.sink = phi i8 [ %45, %43 ], [ %18, %17 ]
  store i8 %.sink, ptr %15, align 8
  br label %46

46:                                               ; preds = %.sink.split, %36, %33, %32
  %.0 = phi i32 [ 27, %32 ], [ %34, %33 ], [ 27, %36 ], [ 0, %.sink.split ]
  call void @llvm.lifetime.end.p0(i64 8, ptr nonnull %6) #4
  call void @llvm.lifetime.end.p0(i64 8, ptr nonnull %5) #4
  ret i32 %.0
}